EXPORTS
    _ZN13EdgeServerApp10initializeEv @1
    _ZN13EdgeServerApp13handleMessageEPN7omnetpp8cMessageE @2
    _ZN13EdgeServerAppD0Ev @3
    _ZN6CarApp10initializeEv @4
    _ZN6CarApp13handleMessageEPN7omnetpp8cMessageE @5
    _ZN6CarApp16sendToNearestRsuEv @6
    _ZN6CarApp17makeAndDecideTaskEv @7
    _ZN6CarApp6finishEv @8
    _ZN6CarAppD0Ev @9
    _ZN6RsuApp13handleMessageEPN7omnetpp8cMessageE @10
    _ZN6RsuAppD0Ev @11
    _ZN7iovmini13OffloadResult10setCreatedEN7omnetpp7SimTimeE @12
    _ZN7iovmini13OffloadResult11setRsuIndexEi @13
    _ZN7iovmini13OffloadResult12parsimUnpackEPN7omnetpp11cCommBufferE @14
    _ZN7iovmini13OffloadResult13setFinishedAtEN7omnetpp7SimTimeE @15
    _ZN7iovmini13OffloadResult14setSrcModuleIdEi @16
    _ZN7iovmini13OffloadResult4copyERKS0_ @17
    _ZN7iovmini13OffloadResultC1EPKcs @18
    _ZN7iovmini13OffloadResultC1ERKS0_ @19
    _ZN7iovmini13OffloadResultC2EPKcs @20
    _ZN7iovmini13OffloadResultC2ERKS0_ @21
    _ZN7iovmini13OffloadResultD0Ev @22
    _ZN7iovmini13OffloadResultD1Ev @23
    _ZN7iovmini13OffloadResultD2Ev @24
    _ZN7iovmini13OffloadResultaSERKS0_ @25
    _ZN7iovmini14OffloadRequest10setCreatedEN7omnetpp7SimTimeE @26
    _ZN7iovmini14OffloadRequest11setRsuIndexEi @27
    _ZN7iovmini14OffloadRequest12parsimUnpackEPN7omnetpp11cCommBufferE @28
    _ZN7iovmini14OffloadRequest14setSrcModuleIdEi @29
    _ZN7iovmini14OffloadRequest4copyERKS0_ @30
    _ZN7iovmini14OffloadRequest8setBytesEi @31
    _ZN7iovmini14OffloadRequest9setCyclesEd @32
    _ZN7iovmini14OffloadRequestC1EPKcs @33
    _ZN7iovmini14OffloadRequestC1ERKS0_ @34
    _ZN7iovmini14OffloadRequestC2EPKcs @35
    _ZN7iovmini14OffloadRequestC2ERKS0_ @36
    _ZN7iovmini14OffloadRequestD0Ev @37
    _ZN7iovmini14OffloadRequestD1Ev @38
    _ZN7iovmini14OffloadRequestD2Ev @39
    _ZN7iovmini14OffloadRequestaSERKS0_ @40
    _ZN7iovmini23OffloadResultDescriptorC1Ev @41
    _ZN7iovmini23OffloadResultDescriptorC2Ev @42
    _ZN7iovmini23OffloadResultDescriptorD0Ev @43
    _ZN7iovmini23OffloadResultDescriptorD1Ev @44
    _ZN7iovmini23OffloadResultDescriptorD2Ev @45
    _ZN7iovmini24OffloadRequestDescriptorC1Ev @46
    _ZN7iovmini24OffloadRequestDescriptorC2Ev @47
    _ZN7iovmini24OffloadRequestDescriptorD0Ev @48
    _ZN7iovmini24OffloadRequestDescriptorD1Ev @49
    _ZN7iovmini24OffloadRequestDescriptorD2Ev @50
    _ZN7omnetpp10cComponent10initializeEi @51
    _ZN7omnetpp10cComponent12recordScalarEPKcNS_7SimTimeES2_ @52
    _ZN7omnetpp10cComponent4emitEiPKNS_7cObjectEPS1_ @53
    _ZN7omnetpp10cComponent4emitEicPNS_7cObjectE @54
    _ZN7omnetpp10cComponent4emitEiePNS_7cObjectE @55
    _ZN7omnetpp10cComponent4emitEifPNS_7cObjectE @56
    _ZN7omnetpp10cComponent4emitEihPNS_7cObjectE @57
    _ZN7omnetpp10cComponent4emitEiiPNS_7cObjectE @58
    _ZN7omnetpp10cComponent4emitEijPNS_7cObjectE @59
    _ZN7omnetpp10cComponent4emitEilPNS_7cObjectE @60
    _ZN7omnetpp10cComponent4emitEimPNS_7cObjectE @61
    _ZN7omnetpp10cComponent4emitEisPNS_7cObjectE @62
    _ZN7omnetpp10cComponent4emitEitPNS_7cObjectE @63
    _ZN7omnetpp10cComponent4emitEixPNS_7cObjectE @64
    _ZN7omnetpp10cComponent4emitEiyPNS_7cObjectE @65
    _ZN7omnetpp10cComponent9setRNGMapEsPi @66
    _ZN7omnetpp10cExceptionD2Ev @67
    _ZN7omnetpp10fromAnyPtrIN7iovmini13OffloadResultEEEPT_NS_7any_ptrE @68
    _ZN7omnetpp10fromAnyPtrIN7iovmini14OffloadRequestEEEPT_NS_7any_ptrE @69
    _ZN7omnetpp12cNamedObject14getNamePoolingEv @70
    _ZN7omnetpp13cSimpleModule10sendDirectEPNS_8cMessageENS_7SimTimeES3_PNS_5cGateE @71
    _ZN7omnetpp13cSimpleModule10sendDirectEPNS_8cMessageENS_7SimTimeES3_PNS_7cModuleEPKci @72
    _ZN7omnetpp13cSimpleModule10sendDirectEPNS_8cMessageENS_7SimTimeES3_PNS_7cModuleEi @73
    _ZN7omnetpp13cSimpleModule10sendDirectEPNS_8cMessageEPNS_5cGateE @74
    _ZN7omnetpp13cSimpleModule10sendDirectEPNS_8cMessageEPNS_7cModuleEPKci @75
    _ZN7omnetpp13cSimpleModule10sendDirectEPNS_8cMessageEPNS_7cModuleEi @76
    _ZN7omnetpp13cSimpleModule10sendDirectEPNS_8cMessageERKNS_11SendOptionsEPNS_7cModuleEPKci @77
    _ZN7omnetpp13cSimpleModule10sendDirectEPNS_8cMessageERKNS_11SendOptionsEPNS_7cModuleEi @78
    _ZN7omnetpp13cSimpleModule11sendDelayedEPNS_8cMessageENS_7SimTimeEPKci @79
    _ZN7omnetpp13cSimpleModule11sendDelayedEPNS_8cMessageENS_7SimTimeEPNS_5cGateE @80
    _ZN7omnetpp13cSimpleModule11sendDelayedEPNS_8cMessageENS_7SimTimeEi @81
    _ZN7omnetpp13cSimpleModule4sendEPNS_8cMessageEPKci @82
    _ZN7omnetpp13cSimpleModule4sendEPNS_8cMessageEPNS_5cGateE @83
    _ZN7omnetpp13cSimpleModule4sendEPNS_8cMessageERKNS_11SendOptionsEPKci @84
    _ZN7omnetpp13cSimpleModule4sendEPNS_8cMessageERKNS_11SendOptionsEi @85
    _ZN7omnetpp13cSimpleModule4sendEPNS_8cMessageEi @86
    _ZN7omnetpp14check_and_castIPN5veins13TraCIMobilityENS_7cModuleEEET_PT0_ @87
    _ZN7omnetpp14check_and_castIPN7iovmini13OffloadResultENS_7cObjectEEET_PT0_ @88
    _ZN7omnetpp14check_and_castIPN7iovmini14OffloadRequestENS_7cObjectEEET_PT0_ @89
    _ZN7omnetpp16checked_int_castIixEET_T0_PKNS_7cObjectEPKc @90
    _ZN7omnetpp16checked_int_castIixEET_T0_PKc @91
    _ZN7omnetpp22check_and_cast_failureIPN5veins13TraCIMobilityENS_7cModuleEEEvPT0_T_ @92
    _ZN7omnetpp22check_and_cast_failureIPN7iovmini13OffloadResultENS_7cObjectEEEvPT0_T_ @93
    _ZN7omnetpp22check_and_cast_failureIPN7iovmini14OffloadRequestENS_7cObjectEEEvPT0_T_ @94
    _ZN7omnetpp23cNoncopyableOwnedObject12parsimUnpackEPNS_11cCommBufferE @95
    _ZN7omnetpp7cModule27setBuiltinAnimationsAllowedEb @96
    _ZN7omnetpp7cPacket11setBitErrorEb @97
    _ZN7omnetpp8cMessage10getParListEv @98
    _ZN7omnetpp8cMessage12removeObjectEPKc @99
    _ZN7omnetpp8cMessage12removeObjectEPNS_7cObjectE @100
    _ZN7omnetpp8cMessage6addParEPKc @101
    _ZN7omnetpp8cMessage6addParEPNS_7cMsgParE @102
    _ZN7omnetpp8cMessage9addObjectEPNS_7cObjectE @103
    _ZN7omnetpp8cMessage9getObjectEPKc @104
    _ZN7omnetpp8cMessage9hasObjectEPKc @105
    _ZNK7iovmini13OffloadResult10getCreatedEv @106
    _ZNK7iovmini13OffloadResult10parsimPackEPN7omnetpp11cCommBufferE @107
    _ZNK7iovmini13OffloadResult11getRsuIndexEv @108
    _ZNK7iovmini13OffloadResult13getFinishedAtEv @109
    _ZNK7iovmini13OffloadResult14getSrcModuleIdEv @110
    _ZNK7iovmini13OffloadResult3dupEv @111
    _ZNK7iovmini14OffloadRequest10getCreatedEv @112
    _ZNK7iovmini14OffloadRequest10parsimPackEPN7omnetpp11cCommBufferE @113
    _ZNK7iovmini14OffloadRequest11getRsuIndexEv @114
    _ZNK7iovmini14OffloadRequest14getSrcModuleIdEv @115
    _ZNK7iovmini14OffloadRequest3dupEv @116
    _ZNK7iovmini14OffloadRequest8getBytesEv @117
    _ZNK7iovmini14OffloadRequest9getCyclesEv @118
    _ZNK7iovmini23OffloadResultDescriptor11doesSupportEPN7omnetpp7cObjectE @119
    _ZNK7iovmini23OffloadResultDescriptor11getPropertyEPKc @120
    _ZNK7iovmini23OffloadResultDescriptor12getFieldNameEi @121
    _ZNK7iovmini23OffloadResultDescriptor13getFieldCountEv @122
    _ZNK7iovmini23OffloadResultDescriptor13getFieldValueEN7omnetpp7any_ptrEii @123
    _ZNK7iovmini23OffloadResultDescriptor13setFieldValueEN7omnetpp7any_ptrEiiRKNS1_6cValueE @124
    _ZNK7iovmini23OffloadResultDescriptor16getFieldPropertyEiPKc @125
    _ZNK7iovmini23OffloadResultDescriptor16getPropertyNamesEv @126
    _ZNK7iovmini23OffloadResultDescriptor17getFieldArraySizeEN7omnetpp7any_ptrEi @127
    _ZNK7iovmini23OffloadResultDescriptor17getFieldTypeFlagsEi @128
    _ZNK7iovmini23OffloadResultDescriptor17setFieldArraySizeEN7omnetpp7any_ptrEii @129
    _ZNK7iovmini23OffloadResultDescriptor18getFieldStructNameEi @130
    _ZNK7iovmini23OffloadResultDescriptor18getFieldTypeStringEi @131
    _ZNK7iovmini23OffloadResultDescriptor21getFieldPropertyNamesEi @132
    _ZNK7iovmini23OffloadResultDescriptor21getFieldValueAsStringB5cxx11EN7omnetpp7any_ptrEii @133
    _ZNK7iovmini23OffloadResultDescriptor21setFieldValueAsStringEN7omnetpp7any_ptrEiiPKc @134
    _ZNK7iovmini23OffloadResultDescriptor25getFieldDynamicTypeStringEN7omnetpp7any_ptrEii @135
    _ZNK7iovmini23OffloadResultDescriptor26getFieldStructValuePointerEN7omnetpp7any_ptrEii @136
    _ZNK7iovmini23OffloadResultDescriptor26setFieldStructValuePointerEN7omnetpp7any_ptrEiiS2_ @137
    _ZNK7iovmini23OffloadResultDescriptor9findFieldEPKc @138
    _ZNK7iovmini24OffloadRequestDescriptor11doesSupportEPN7omnetpp7cObjectE @139
    _ZNK7iovmini24OffloadRequestDescriptor11getPropertyEPKc @140
    _ZNK7iovmini24OffloadRequestDescriptor12getFieldNameEi @141
    _ZNK7iovmini24OffloadRequestDescriptor13getFieldCountEv @142
    _ZNK7iovmini24OffloadRequestDescriptor13getFieldValueEN7omnetpp7any_ptrEii @143
    _ZNK7iovmini24OffloadRequestDescriptor13setFieldValueEN7omnetpp7any_ptrEiiRKNS1_6cValueE @144
    _ZNK7iovmini24OffloadRequestDescriptor16getFieldPropertyEiPKc @145
    _ZNK7iovmini24OffloadRequestDescriptor16getPropertyNamesEv @146
    _ZNK7iovmini24OffloadRequestDescriptor17getFieldArraySizeEN7omnetpp7any_ptrEi @147
    _ZNK7iovmini24OffloadRequestDescriptor17getFieldTypeFlagsEi @148
    _ZNK7iovmini24OffloadRequestDescriptor17setFieldArraySizeEN7omnetpp7any_ptrEii @149
    _ZNK7iovmini24OffloadRequestDescriptor18getFieldStructNameEi @150
    _ZNK7iovmini24OffloadRequestDescriptor18getFieldTypeStringEi @151
    _ZNK7iovmini24OffloadRequestDescriptor21getFieldPropertyNamesEi @152
    _ZNK7iovmini24OffloadRequestDescriptor21getFieldValueAsStringB5cxx11EN7omnetpp7any_ptrEii @153
    _ZNK7iovmini24OffloadRequestDescriptor21setFieldValueAsStringEN7omnetpp7any_ptrEiiPKc @154
    _ZNK7iovmini24OffloadRequestDescriptor25getFieldDynamicTypeStringEN7omnetpp7any_ptrEii @155
    _ZNK7iovmini24OffloadRequestDescriptor26getFieldStructValuePointerEN7omnetpp7any_ptrEii @156
    _ZNK7iovmini24OffloadRequestDescriptor26setFieldStructValuePointerEN7omnetpp7any_ptrEiiS2_ @157
    _ZNK7iovmini24OffloadRequestDescriptor9findFieldEPKc @158
    _ZNK7omnetpp10cComponent10chi_squareEji @159
    _ZNK7omnetpp10cComponent10intuniformEiii @160
    _ZNK7omnetpp10cComponent11exponentialENS_7SimTimeEi @161
    _ZNK7omnetpp10cComponent11exponentialEdi @162
    _ZNK7omnetpp10cComponent11negbinomialEidi @163
    _ZNK7omnetpp10cComponent11truncnormalENS_7SimTimeES1_i @164
    _ZNK7omnetpp10cComponent11truncnormalEddi @165
    _ZNK7omnetpp10cComponent12getNumParamsEv @166
    _ZNK7omnetpp10cComponent13numInitStagesEv @167
    _ZNK7omnetpp10cComponent14getDisplayNameEv @168
    _ZNK7omnetpp10cComponent14intuniformexclEiii @169
    _ZNK7omnetpp10cComponent14pareto_shiftedEdddi @170
    _ZNK7omnetpp10cComponent4betaEddi @171
    _ZNK7omnetpp10cComponent6cauchyEddi @172
    _ZNK7omnetpp10cComponent6normalENS_7SimTimeES1_i @173
    _ZNK7omnetpp10cComponent6normalEddi @174
    _ZNK7omnetpp10cComponent6triangEdddi @175
    _ZNK7omnetpp10cComponent7dblrandEi @176
    _ZNK7omnetpp10cComponent7gamma_dEddi @177
    _ZNK7omnetpp10cComponent7intrandEji @178
    _ZNK7omnetpp10cComponent7poissonEdi @179
    _ZNK7omnetpp10cComponent7uniformENS_7SimTimeES1_i @180
    _ZNK7omnetpp10cComponent7uniformEddi @181
    _ZNK7omnetpp10cComponent7weibullEddi @182
    _ZNK7omnetpp10cComponent8binomialEidi @183
    _ZNK7omnetpp10cComponent8erlang_kEjdi @184
    _ZNK7omnetpp10cComponent9bernoulliEdi @185
    _ZNK7omnetpp10cComponent9geometricEdi @186
    _ZNK7omnetpp10cComponent9lognormalEddi @187
    _ZNK7omnetpp10cComponent9student_tEji @188
    _ZNK7omnetpp10cSoftOwner11isSoftOwnerEv @189
    _ZNK7omnetpp12cNamedObject7getNameEv @190
    _ZNK7omnetpp12cOwnedObject13isOwnedObjectEv @191
    _ZNK7omnetpp12cOwnedObject8getOwnerEv @192
    _ZNK7omnetpp23cNoncopyableOwnedObject10parsimPackEPNS_11cCommBufferE @193
    _ZNK7omnetpp7cModule13isPlaceholderEv @194
    _ZNK7omnetpp7cModule15getParentModuleEv @195
    _ZNK7omnetpp7cModule16getComponentKindEv @196
    _ZNK7omnetpp7cModule27getBuiltinAnimationsAllowedEv @197
    _ZNK7omnetpp7cObject11getFullNameEv @198
    _ZNK7omnetpp7cObject11isSoftOwnerEv @199
    _ZNK7omnetpp7cPacket11hasBitErrorEv @200
    _ZNK7omnetpp7cPacket12getBitLengthEv @201
    _ZNK7omnetpp7cPacket8isPacketEv @202
    _ZNK7omnetpp8cMessage12getSrcProcIdEv @203
    _ZNK7omnetpp8cMessage6hasParEPKc @204
    _ZNK7omnetpp8cMessage9isMessageEv @205
    _ZTI13EdgeServerApp @206 DATA
    _ZTI6CarApp @207 DATA
    _ZTI6RsuApp @208 DATA
    _ZTIN5veins10BaseModuleE @209 DATA
    _ZTIN5veins12BaseMobilityE @210 DATA
    _ZTIN5veins13BatteryAccessE @211 DATA
    _ZTIN5veins13TraCIMobilityE @212 DATA
    _ZTIN7iovmini13OffloadResultE @213 DATA
    _ZTIN7iovmini14OffloadRequestE @214 DATA
    _ZTIN7iovmini23OffloadResultDescriptorE @215 DATA
    _ZTIN7iovmini24OffloadRequestDescriptorE @216 DATA
    _ZTIN7omnetpp10cComponentE @217 DATA
    _ZTIN7omnetpp10cExceptionE @218 DATA
    _ZTIN7omnetpp10cIListenerE @219 DATA
    _ZTIN7omnetpp10cSoftOwnerE @220 DATA
    _ZTIN7omnetpp11noncopyableE @221 DATA
    _ZTIN7omnetpp12cNamedObjectE @222 DATA
    _ZTIN7omnetpp12cOwnedObjectE @223 DATA
    _ZTIN7omnetpp13cRuntimeErrorE @224 DATA
    _ZTIN7omnetpp13cSimpleModuleE @225 DATA
    _ZTIN7omnetpp16cClassDescriptorE @226 DATA
    _ZTIN7omnetpp23cNoncopyableOwnedObjectE @227 DATA
    _ZTIN7omnetpp6cEventE @228 DATA
    _ZTIN7omnetpp7cModuleE @229 DATA
    _ZTIN7omnetpp7cObjectE @230 DATA
    _ZTIN7omnetpp7cPacketE @231 DATA
    _ZTIN7omnetpp8cMessageE @232 DATA
    _ZTIN7omnetpp9cListenerE @233 DATA
    _ZTIPN5veins13TraCIMobilityE @234 DATA
    _ZTIPN7iovmini13OffloadResultE @235 DATA
    _ZTIPN7iovmini14OffloadRequestE @236 DATA
    _ZTIPN7omnetpp7cObjectE @237 DATA
    _ZTS13EdgeServerApp @238 DATA
    _ZTS6CarApp @239 DATA
    _ZTS6RsuApp @240 DATA
    _ZTSN5veins10BaseModuleE @241 DATA
    _ZTSN5veins12BaseMobilityE @242 DATA
    _ZTSN5veins13BatteryAccessE @243 DATA
    _ZTSN5veins13TraCIMobilityE @244 DATA
    _ZTSN7iovmini13OffloadResultE @245 DATA
    _ZTSN7iovmini14OffloadRequestE @246 DATA
    _ZTSN7iovmini23OffloadResultDescriptorE @247 DATA
    _ZTSN7iovmini24OffloadRequestDescriptorE @248 DATA
    _ZTSN7omnetpp10cComponentE @249 DATA
    _ZTSN7omnetpp10cExceptionE @250 DATA
    _ZTSN7omnetpp10cIListenerE @251 DATA
    _ZTSN7omnetpp10cSoftOwnerE @252 DATA
    _ZTSN7omnetpp11noncopyableE @253 DATA
    _ZTSN7omnetpp12cNamedObjectE @254 DATA
    _ZTSN7omnetpp12cOwnedObjectE @255 DATA
    _ZTSN7omnetpp13cRuntimeErrorE @256 DATA
    _ZTSN7omnetpp13cSimpleModuleE @257 DATA
    _ZTSN7omnetpp16cClassDescriptorE @258 DATA
    _ZTSN7omnetpp23cNoncopyableOwnedObjectE @259 DATA
    _ZTSN7omnetpp6cEventE @260 DATA
    _ZTSN7omnetpp7cModuleE @261 DATA
    _ZTSN7omnetpp7cObjectE @262 DATA
    _ZTSN7omnetpp7cPacketE @263 DATA
    _ZTSN7omnetpp8cMessageE @264 DATA
    _ZTSN7omnetpp9cListenerE @265 DATA
    _ZTSPN5veins13TraCIMobilityE @266 DATA
    _ZTSPN7iovmini13OffloadResultE @267 DATA
    _ZTSPN7iovmini14OffloadRequestE @268 DATA
    _ZTSPN7omnetpp7cObjectE @269 DATA
    _ZTV13EdgeServerApp @270 DATA
    _ZTV6CarApp @271 DATA
    _ZTV6RsuApp @272 DATA
    _ZTVN7iovmini13OffloadResultE @273 DATA
    _ZTVN7iovmini14OffloadRequestE @274 DATA
    _ZTVN7iovmini23OffloadResultDescriptorE @275 DATA
    _ZTVN7iovmini24OffloadRequestDescriptorE @276 DATA
